target datalayout = "e-m:e-p270:32:32-p271:32:32-p272:64:64-i64:64-i128:128-f80:128-n8:16:32:64-S128"
target triple = "x86_64-pc-linux-gnu"

%struct.SurfaceDataRasInfo = type { %struct.SurfaceDataBounds, ptr, i32, i32, i32, i32, ptr, ptr, ptr, ptr, ptr, ptr, i32, %union.anon.0 }
%struct.SurfaceDataBounds = type { i32, i32, i32, i32 }
%union.anon.0 = type { ptr, [56 x i8] }
%struct._CompositeInfo = type { i32, %union.anon.1, i32 }
%union.anon.1 = type { float }
%struct.ImageRef = type { ptr, ptr, i32, i32, i32, i32, i32, i32 }

; Function Attrs: nounwind uwtable
define hidden void @Any4ByteDrawGlyphListXor(ptr noundef %0, ptr noundef %1, i32 noundef %2, i32 noundef %3, i32 noundef %4, i32 noundef %5, i32 noundef %6, i32 noundef %7, i32 noundef %8, ptr noundef %9, ptr noundef %10) #0 {
  %12 = alloca ptr, align 8
  %13 = alloca ptr, align 8
  %14 = alloca i32, align 4
  %15 = alloca i32, align 4
  %16 = alloca i32, align 4
  %17 = alloca i32, align 4
  %18 = alloca i32, align 4
  %19 = alloca i32, align 4
  %20 = alloca i32, align 4
  %21 = alloca ptr, align 8
  %22 = alloca ptr, align 8
  %23 = alloca i32, align 4
  %24 = alloca i32, align 4
  %25 = alloca i32, align 4
  %26 = alloca i32, align 4
  %27 = alloca i8, align 1
  %28 = alloca i8, align 1
  %29 = alloca i8, align 1
  %30 = alloca i8, align 1
  %31 = alloca i8, align 1
  %32 = alloca i8, align 1
  %33 = alloca i8, align 1
  %34 = alloca i8, align 1
  %35 = alloca i8, align 1
  %36 = alloca i8, align 1
  %37 = alloca i8, align 1
  %38 = alloca i8, align 1
  %39 = alloca ptr, align 8
  %40 = alloca ptr, align 8
  %41 = alloca i32, align 4
  %42 = alloca i32, align 4
  %43 = alloca i32, align 4
  %44 = alloca i32, align 4
  %45 = alloca i32, align 4
  %46 = alloca i32, align 4
  %47 = alloca i32, align 4
  %48 = alloca i32, align 4
  store ptr %0, ptr %12, align 8
  store ptr %1, ptr %13, align 8
  store i32 %2, ptr %14, align 4
  store i32 %3, ptr %15, align 4
  store i32 %4, ptr %16, align 4
  store i32 %5, ptr %17, align 4
  store i32 %6, ptr %18, align 4
  store i32 %7, ptr %19, align 4
  store i32 %8, ptr %20, align 4
  store ptr %9, ptr %21, align 8
  store ptr %10, ptr %22, align 8
  %49 = load ptr, ptr %12, align 8
  %50 = getelementptr inbounds %struct.SurfaceDataRasInfo, ptr %49, i32 0, i32 4
  %51 = load i32, ptr %50, align 8
  store i32 %51, ptr %24, align 4
  %52 = load ptr, ptr %22, align 8
  %53 = getelementptr inbounds %struct._CompositeInfo, ptr %52, i32 0, i32 1
  %54 = load i32, ptr %53, align 4
  store i32 %54, ptr %25, align 4
  %55 = load ptr, ptr %22, align 8
  %56 = getelementptr inbounds %struct._CompositeInfo, ptr %55, i32 0, i32 2
  %57 = load i32, ptr %56, align 4
  store i32 %57, ptr %26, align 4
  br label %58

58:                                               ; preds = %11
  %59 = load i32, ptr %25, align 4
  %60 = trunc i32 %59 to i8
  store i8 %60, ptr %27, align 1
  %61 = load i32, ptr %25, align 4
  %62 = ashr i32 %61, 8
  %63 = trunc i32 %62 to i8
  store i8 %63, ptr %28, align 1
  %64 = load i32, ptr %25, align 4
  %65 = ashr i32 %64, 16
  %66 = trunc i32 %65 to i8
  store i8 %66, ptr %29, align 1
  %67 = load i32, ptr %25, align 4
  %68 = ashr i32 %67, 24
  %69 = trunc i32 %68 to i8
  store i8 %69, ptr %30, align 1
  br label %70

70:                                               ; preds = %58
  br label %71

71:                                               ; preds = %70
  %72 = load i32, ptr %15, align 4
  %73 = trunc i32 %72 to i8
  store i8 %73, ptr %31, align 1
  %74 = load i32, ptr %15, align 4
  %75 = ashr i32 %74, 8
  %76 = trunc i32 %75 to i8
  store i8 %76, ptr %32, align 1
  %77 = load i32, ptr %15, align 4
  %78 = ashr i32 %77, 16
  %79 = trunc i32 %78 to i8
  store i8 %79, ptr %33, align 1
  %80 = load i32, ptr %15, align 4
  %81 = ashr i32 %80, 24
  %82 = trunc i32 %81 to i8
  store i8 %82, ptr %34, align 1
  br label %83

83:                                               ; preds = %71
  br label %84

84:                                               ; preds = %83
  %85 = load i32, ptr %26, align 4
  %86 = trunc i32 %85 to i8
  store i8 %86, ptr %35, align 1
  %87 = load i32, ptr %26, align 4
  %88 = lshr i32 %87, 8
  %89 = trunc i32 %88 to i8
  store i8 %89, ptr %36, align 1
  %90 = load i32, ptr %26, align 4
  %91 = lshr i32 %90, 16
  %92 = trunc i32 %91 to i8
  store i8 %92, ptr %37, align 1
  %93 = load i32, ptr %26, align 4
  %94 = lshr i32 %93, 24
  %95 = trunc i32 %94 to i8
  store i8 %95, ptr %38, align 1
  br label %96

96:                                               ; preds = %84
  store i32 0, ptr %23, align 4
  br label %97

97:                                               ; preds = %326, %96
  %98 = load i32, ptr %23, align 4
  %99 = load i32, ptr %14, align 4
  %100 = icmp slt i32 %98, %99
  br i1 %100, label %101, label %329

101:                                              ; preds = %97
  %102 = load ptr, ptr %13, align 8
  %103 = load i32, ptr %23, align 4
  %104 = sext i32 %103 to i64
  %105 = getelementptr inbounds %struct.ImageRef, ptr %102, i64 %104
  %106 = getelementptr inbounds %struct.ImageRef, ptr %105, i32 0, i32 1
  %107 = load ptr, ptr %106, align 8
  store ptr %107, ptr %40, align 8
  %108 = load ptr, ptr %40, align 8
  %109 = icmp ne ptr %108, null
  br i1 %109, label %111, label %110

110:                                              ; preds = %101
  br label %326

111:                                              ; preds = %101
  %112 = load ptr, ptr %13, align 8
  %113 = load i32, ptr %23, align 4
  %114 = sext i32 %113 to i64
  %115 = getelementptr inbounds %struct.ImageRef, ptr %112, i64 %114
  %116 = getelementptr inbounds %struct.ImageRef, ptr %115, i32 0, i32 2
  %117 = load i32, ptr %116, align 8
  store i32 %117, ptr %41, align 4
  %118 = load ptr, ptr %13, align 8
  %119 = load i32, ptr %23, align 4
  %120 = sext i32 %119 to i64
  %121 = getelementptr inbounds %struct.ImageRef, ptr %118, i64 %120
  %122 = getelementptr inbounds %struct.ImageRef, ptr %121, i32 0, i32 6
  %123 = load i32, ptr %122, align 8
  store i32 %123, ptr %42, align 4
  %124 = load ptr, ptr %13, align 8
  %125 = load i32, ptr %23, align 4
  %126 = sext i32 %125 to i64
  %127 = getelementptr inbounds %struct.ImageRef, ptr %124, i64 %126
  %128 = getelementptr inbounds %struct.ImageRef, ptr %127, i32 0, i32 7
  %129 = load i32, ptr %128, align 4
  store i32 %129, ptr %43, align 4
  %130 = load ptr, ptr %13, align 8
  %131 = load i32, ptr %23, align 4
  %132 = sext i32 %131 to i64
  %133 = getelementptr inbounds %struct.ImageRef, ptr %130, i64 %132
  %134 = getelementptr inbounds %struct.ImageRef, ptr %133, i32 0, i32 4
  %135 = load i32, ptr %134, align 8
  store i32 %135, ptr %44, align 4
  %136 = load ptr, ptr %13, align 8
  %137 = load i32, ptr %23, align 4
  %138 = sext i32 %137 to i64
  %139 = getelementptr inbounds %struct.ImageRef, ptr %136, i64 %138
  %140 = getelementptr inbounds %struct.ImageRef, ptr %139, i32 0, i32 5
  %141 = load i32, ptr %140, align 4
  store i32 %141, ptr %45, align 4
  %142 = load i32, ptr %42, align 4
  %143 = load i32, ptr %44, align 4
  %144 = add nsw i32 %142, %143
  store i32 %144, ptr %46, align 4
  %145 = load i32, ptr %43, align 4
  %146 = load i32, ptr %45, align 4
  %147 = add nsw i32 %145, %146
  store i32 %147, ptr %47, align 4
  %148 = load i32, ptr %42, align 4
  %149 = load i32, ptr %17, align 4
  %150 = icmp slt i32 %148, %149
  br i1 %150, label %151, label %160

151:                                              ; preds = %111
  %152 = load i32, ptr %17, align 4
  %153 = load i32, ptr %42, align 4
  %154 = sub nsw i32 %152, %153
  %155 = mul nsw i32 %154, 1
  %156 = load ptr, ptr %40, align 8
  %157 = sext i32 %155 to i64
  %158 = getelementptr inbounds i8, ptr %156, i64 %157
  store ptr %158, ptr %40, align 8
  %159 = load i32, ptr %17, align 4
  store i32 %159, ptr %42, align 4
  br label %160

160:                                              ; preds = %151, %111
  %161 = load i32, ptr %43, align 4
  %162 = load i32, ptr %18, align 4
  %163 = icmp slt i32 %161, %162
  br i1 %163, label %164, label %174

164:                                              ; preds = %160
  %165 = load i32, ptr %18, align 4
  %166 = load i32, ptr %43, align 4
  %167 = sub nsw i32 %165, %166
  %168 = load i32, ptr %41, align 4
  %169 = mul nsw i32 %167, %168
  %170 = load ptr, ptr %40, align 8
  %171 = sext i32 %169 to i64
  %172 = getelementptr inbounds i8, ptr %170, i64 %171
  store ptr %172, ptr %40, align 8
  %173 = load i32, ptr %18, align 4
  store i32 %173, ptr %43, align 4
  br label %174

174:                                              ; preds = %164, %160
  %175 = load i32, ptr %46, align 4
  %176 = load i32, ptr %19, align 4
  %177 = icmp sgt i32 %175, %176
  br i1 %177, label %178, label %180

178:                                              ; preds = %174
  %179 = load i32, ptr %19, align 4
  store i32 %179, ptr %46, align 4
  br label %180

180:                                              ; preds = %178, %174
  %181 = load i32, ptr %47, align 4
  %182 = load i32, ptr %20, align 4
  %183 = icmp sgt i32 %181, %182
  br i1 %183, label %184, label %186

184:                                              ; preds = %180
  %185 = load i32, ptr %20, align 4
  store i32 %185, ptr %47, align 4
  br label %186

186:                                              ; preds = %184, %180
  %187 = load i32, ptr %46, align 4
  %188 = load i32, ptr %42, align 4
  %189 = icmp sle i32 %187, %188
  br i1 %189, label %194, label %190

190:                                              ; preds = %186
  %191 = load i32, ptr %47, align 4
  %192 = load i32, ptr %43, align 4
  %193 = icmp sle i32 %191, %192
  br i1 %193, label %194, label %195

194:                                              ; preds = %190, %186
  br label %326

195:                                              ; preds = %190
  %196 = load i32, ptr %46, align 4
  %197 = load i32, ptr %42, align 4
  %198 = sub nsw i32 %196, %197
  store i32 %198, ptr %44, align 4
  %199 = load i32, ptr %47, align 4
  %200 = load i32, ptr %43, align 4
  %201 = sub nsw i32 %199, %200
  store i32 %201, ptr %45, align 4
  %202 = load ptr, ptr %12, align 8
  %203 = getelementptr inbounds %struct.SurfaceDataRasInfo, ptr %202, i32 0, i32 1
  %204 = load ptr, ptr %203, align 8
  %205 = ptrtoint ptr %204 to i64
  %206 = load i32, ptr %43, align 4
  %207 = sext i32 %206 to i64
  %208 = load i32, ptr %24, align 4
  %209 = sext i32 %208 to i64
  %210 = mul nsw i64 %207, %209
  %211 = load i32, ptr %42, align 4
  %212 = sext i32 %211 to i64
  %213 = mul nsw i64 %212, 4
  %214 = add nsw i64 %210, %213
  %215 = add nsw i64 %205, %214
  %216 = inttoptr i64 %215 to ptr
  store ptr %216, ptr %39, align 8
  br label %217

217:                                              ; preds = %321, %195
  store i32 0, ptr %48, align 4
  br label %218

218:                                              ; preds = %305, %217
  %219 = load ptr, ptr %40, align 8
  %220 = load i32, ptr %48, align 4
  %221 = sext i32 %220 to i64
  %222 = getelementptr inbounds i8, ptr %219, i64 %221
  %223 = load i8, ptr %222, align 1
  %224 = icmp ne i8 %223, 0
  br i1 %224, label %225, label %304

225:                                              ; preds = %218
  br label %226

226:                                              ; preds = %225
  %227 = load i8, ptr %31, align 1
  %228 = zext i8 %227 to i32
  %229 = load i8, ptr %27, align 1
  %230 = zext i8 %229 to i32
  %231 = xor i32 %228, %230
  %232 = load i8, ptr %35, align 1
  %233 = zext i8 %232 to i32
  %234 = xor i32 %233, -1
  %235 = and i32 %231, %234
  %236 = load ptr, ptr %39, align 8
  %237 = load i32, ptr %48, align 4
  %238 = mul nsw i32 4, %237
  %239 = add nsw i32 %238, 0
  %240 = sext i32 %239 to i64
  %241 = getelementptr inbounds i8, ptr %236, i64 %240
  %242 = load i8, ptr %241, align 1
  %243 = zext i8 %242 to i32
  %244 = xor i32 %243, %235
  %245 = trunc i32 %244 to i8
  store i8 %245, ptr %241, align 1
  %246 = load i8, ptr %32, align 1
  %247 = zext i8 %246 to i32
  %248 = load i8, ptr %28, align 1
  %249 = zext i8 %248 to i32
  %250 = xor i32 %247, %249
  %251 = load i8, ptr %36, align 1
  %252 = zext i8 %251 to i32
  %253 = xor i32 %252, -1
  %254 = and i32 %250, %253
  %255 = load ptr, ptr %39, align 8
  %256 = load i32, ptr %48, align 4
  %257 = mul nsw i32 4, %256
  %258 = add nsw i32 %257, 1
  %259 = sext i32 %258 to i64
  %260 = getelementptr inbounds i8, ptr %255, i64 %259
  %261 = load i8, ptr %260, align 1
  %262 = zext i8 %261 to i32
  %263 = xor i32 %262, %254
  %264 = trunc i32 %263 to i8
  store i8 %264, ptr %260, align 1
  %265 = load i8, ptr %33, align 1
  %266 = zext i8 %265 to i32
  %267 = load i8, ptr %29, align 1
  %268 = zext i8 %267 to i32
  %269 = xor i32 %266, %268
  %270 = load i8, ptr %37, align 1
  %271 = zext i8 %270 to i32
  %272 = xor i32 %271, -1
  %273 = and i32 %269, %272
  %274 = load ptr, ptr %39, align 8
  %275 = load i32, ptr %48, align 4
  %276 = mul nsw i32 4, %275
  %277 = add nsw i32 %276, 2
  %278 = sext i32 %277 to i64
  %279 = getelementptr inbounds i8, ptr %274, i64 %278
  %280 = load i8, ptr %279, align 1
  %281 = zext i8 %280 to i32
  %282 = xor i32 %281, %273
  %283 = trunc i32 %282 to i8
  store i8 %283, ptr %279, align 1
  %284 = load i8, ptr %34, align 1
  %285 = zext i8 %284 to i32
  %286 = load i8, ptr %30, align 1
  %287 = zext i8 %286 to i32
  %288 = xor i32 %285, %287
  %289 = load i8, ptr %38, align 1
  %290 = zext i8 %289 to i32
  %291 = xor i32 %290, -1
  %292 = and i32 %288, %291
  %293 = load ptr, ptr %39, align 8
  %294 = load i32, ptr %48, align 4
  %295 = mul nsw i32 4, %294
  %296 = add nsw i32 %295, 3
  %297 = sext i32 %296 to i64
  %298 = getelementptr inbounds i8, ptr %293, i64 %297
  %299 = load i8, ptr %298, align 1
  %300 = zext i8 %299 to i32
  %301 = xor i32 %300, %292
  %302 = trunc i32 %301 to i8
  store i8 %302, ptr %298, align 1
  br label %303

303:                                              ; preds = %226
  br label %304

304:                                              ; preds = %303, %218
  br label %305

305:                                              ; preds = %304
  %306 = load i32, ptr %48, align 4
  %307 = add nsw i32 %306, 1
  store i32 %307, ptr %48, align 4
  %308 = load i32, ptr %44, align 4
  %309 = icmp slt i32 %307, %308
  br i1 %309, label %218, label %310, !llvm.loop !26

310:                                              ; preds = %305
  %311 = load ptr, ptr %39, align 8
  %312 = ptrtoint ptr %311 to i64
  %313 = load i32, ptr %24, align 4
  %314 = sext i32 %313 to i64
  %315 = add nsw i64 %312, %314
  %316 = inttoptr i64 %315 to ptr
  store ptr %316, ptr %39, align 8
  %317 = load i32, ptr %41, align 4
  %318 = load ptr, ptr %40, align 8
  %319 = sext i32 %317 to i64
  %320 = getelementptr inbounds i8, ptr %318, i64 %319
  store ptr %320, ptr %40, align 8
  br label %321

321:                                              ; preds = %310
  %322 = load i32, ptr %45, align 4
  %323 = add nsw i32 %322, -1
  store i32 %323, ptr %45, align 4
  %324 = icmp sgt i32 %323, 0
  br i1 %324, label %217, label %325, !llvm.loop !27

325:                                              ; preds = %321
  br label %326

326:                                              ; preds = %325, %194, %110
  %327 = load i32, ptr %23, align 4
  %328 = add nsw i32 %327, 1
  store i32 %328, ptr %23, align 4
  br label %97, !llvm.loop !28

329:                                              ; preds = %97
  ret void
}