; Function Attrs: nofree norecurse nosync nounwind memory(readwrite, inaccessiblemem: none) uwtable
define hidden void @Any4ByteDrawGlyphListXor(ptr nocapture noundef readonly %0, ptr nocapture noundef readonly %1, i32 noundef %2, i32 noundef %3, i32 %4, i32 noundef %5, i32 noundef %6, i32 noundef %7, i32 noundef %8, ptr nocapture readnone %9, ptr nocapture noundef readonly %10) #2 {
  %12 = icmp sgt i32 %2, 0
  br i1 %12, label %.lr.ph, label %._crit_edge

.lr.ph:                                           ; preds = %11
  %13 = getelementptr inbounds i8, ptr %10, i64 8
  %14 = load i32, ptr %13, align 4
  %15 = getelementptr inbounds i8, ptr %10, i64 4
  %16 = load i32, ptr %15, align 4
  %17 = getelementptr inbounds i8, ptr %0, i64 32
  %18 = load i32, ptr %17, align 8
  %19 = getelementptr inbounds i8, ptr %0, i64 16
  %20 = sext i32 %18 to i64
  %21 = xor i32 %16, %3
  %22 = xor i32 %14, -1
  %23 = and i32 %21, %22
  %24 = trunc i32 %23 to i8
  %25 = lshr i32 %23, 8
  %26 = trunc i32 %25 to i8
  %27 = lshr i32 %23, 16
  %28 = trunc i32 %27 to i8
  %29 = lshr i32 %23, 24
  %30 = trunc nuw i32 %29 to i8
  %wide.trip.count124 = zext nneg i32 %2 to i64
  br label %31

31:                                               ; preds = %.lr.ph, %.loopexit
  %indvars.iv121 = phi i64 [ 0, %.lr.ph ], [ %indvars.iv.next122, %.loopexit ]
  %32 = getelementptr inbounds %struct.ImageRef, ptr %1, i64 %indvars.iv121
  %33 = getelementptr inbounds i8, ptr %32, i64 8
  %34 = load ptr, ptr %33, align 8
  %.not = icmp eq ptr %34, null
  br i1 %.not, label %.loopexit, label %35

35:                                               ; preds = %31
  %36 = getelementptr inbounds i8, ptr %32, i64 32
  %37 = load i32, ptr %36, align 8
  %38 = getelementptr inbounds i8, ptr %32, i64 36
  %39 = load i32, ptr %38, align 4
  %40 = getelementptr inbounds i8, ptr %32, i64 24
  %41 = load i32, ptr %40, align 8
  %42 = getelementptr inbounds i8, ptr %32, i64 28
  %43 = load i32, ptr %42, align 4
  %44 = add nsw i32 %41, %37
  %45 = add nsw i32 %43, %39
  %.098 = tail call i32 @llvm.smax.i32(i32 %37, i32 %5)
  %.097 = tail call i32 @llvm.smax.i32(i32 %39, i32 %6)
  %.095 = tail call i32 @llvm.smin.i32(i32 %44, i32 %7)
  %.094 = tail call i32 @llvm.smin.i32(i32 %45, i32 %8)
  %.not115 = icmp sgt i32 %.095, %.098
  %.not116 = icmp sgt i32 %.094, %.097
  %or.cond = select i1 %.not115, i1 %.not116, i1 false
  br i1 %or.cond, label %46, label %.loopexit

46:                                               ; preds = %35
  %47 = getelementptr inbounds i8, ptr %32, i64 16
  %48 = load i32, ptr %47, align 8
  %49 = icmp slt i32 %39, %6
  %50 = icmp slt i32 %37, %5
  %51 = sub nsw i32 %5, %37
  %narrow = select i1 %50, i32 %51, i32 0
  %.0100.idx = sext i32 %narrow to i64
  %.0100 = getelementptr inbounds i8, ptr %34, i64 %.0100.idx
  %52 = sub nsw i32 %6, %39
  %53 = mul nsw i32 %52, %48
  %narrow118 = select i1 %49, i32 %53, i32 0
  %.1.idx = sext i32 %narrow118 to i64
  %.1 = getelementptr inbounds i8, ptr %.0100, i64 %.1.idx
  %54 = sub i32 %.095, %.098
  %55 = sub nsw i32 %.094, %.097
  %56 = load ptr, ptr %19, align 8
  %57 = ptrtoint ptr %56 to i64
  %58 = sext i32 %.097 to i64
  %59 = mul nsw i64 %58, %20
  %60 = sext i32 %.098 to i64
  %61 = shl nsw i64 %60, 2
  %62 = add nsw i64 %59, %61
  %63 = add nsw i64 %62, %57
  %64 = sext i32 %48 to i64
  %smax = tail call i32 @llvm.smax.i32(i32 %54, i32 1)
  %wide.trip.count = zext nneg i32 %smax to i64
  br label %65

65:                                               ; preds = %87, %46
  %.0101.in = phi i64 [ %63, %46 ], [ %88, %87 ]
  %.2 = phi ptr [ %.1, %46 ], [ %89, %87 ]
  %.096 = phi i32 [ %55, %46 ], [ %90, %87 ]
  %.0101 = inttoptr i64 %.0101.in to ptr
  br label %66

66:                                               ; preds = %86, %65
  %indvars.iv = phi i64 [ %indvars.iv.next, %86 ], [ 0, %65 ]
  %67 = getelementptr inbounds i8, ptr %.2, i64 %indvars.iv
  %68 = load i8, ptr %67, align 1
  %.not117 = icmp eq i8 %68, 0
  br i1 %.not117, label %86, label %69

69:                                               ; preds = %66
  %70 = shl nsw i64 %indvars.iv, 2
  %71 = getelementptr inbounds i8, ptr %.0101, i64 %70
  %72 = load i8, ptr %71, align 1
  %73 = xor i8 %72, %24
  store i8 %73, ptr %71, align 1
  %74 = or disjoint i64 %70, 1
  %75 = getelementptr inbounds i8, ptr %.0101, i64 %74
  %76 = load i8, ptr %75, align 1
  %77 = xor i8 %76, %26
  store i8 %77, ptr %75, align 1
  %78 = or disjoint i64 %70, 2
  %79 = getelementptr inbounds i8, ptr %.0101, i64 %78
  %80 = load i8, ptr %79, align 1
  %81 = xor i8 %80, %28
  store i8 %81, ptr %79, align 1
  %82 = or disjoint i64 %70, 3
  %83 = getelementptr inbounds i8, ptr %.0101, i64 %82
  %84 = load i8, ptr %83, align 1
  %85 = xor i8 %84, %30
  store i8 %85, ptr %83, align 1
  br label %86

86:                                               ; preds = %66, %69
  %indvars.iv.next = add nuw nsw i64 %indvars.iv, 1
  %exitcond.not = icmp eq i64 %indvars.iv.next, %wide.trip.count
  br i1 %exitcond.not, label %87, label %66, !llvm.loop !26

87:                                               ; preds = %86
  %88 = add nsw i64 %.0101.in, %20
  %89 = getelementptr inbounds i8, ptr %.2, i64 %64
  %90 = add nsw i32 %.096, -1
  %91 = icmp sgt i32 %.096, 1
  br i1 %91, label %65, label %.loopexit, !llvm.loop !27

.loopexit:                                        ; preds = %87, %35, %31
  %indvars.iv.next122 = add nuw nsw i64 %indvars.iv121, 1
  %exitcond125.not = icmp eq i64 %indvars.iv.next122, %wide.trip.count124
  br i1 %exitcond125.not, label %._crit_edge, label %31, !llvm.loop !28

._crit_edge:                                      ; preds = %.loopexit, %11
  ret void
}